; Function Attrs: mustprogress uwtable
define void @_ZN32pxrInternal_v0_24__pxrReserved__17UsdSkelBindingAPI5ApplyERKNS_7UsdPrimE(ptr dead_on_unwind noalias writable sret(%"class.pxrInternal_v0_24__pxrReserved__::UsdSkelBindingAPI") align 8 %0, ptr noundef nonnull align 8 dereferenceable(32) %1) local_unnamed_addr #0 align 2 personality ptr @__gxx_personality_v0 {
  %3 = alloca %"class.pxrInternal_v0_24__pxrReserved__::UsdPrim", align 8
  %4 = tail call noundef zeroext i1 @_ZNK32pxrInternal_v0_24__pxrReserved__7UsdPrim8ApplyAPIINS_17UsdSkelBindingAPIEEEbv(ptr noundef nonnull align 8 dereferenceable(32) %1)
  br i1 %4, label %5, label %7

5:                                                ; preds = %2
  tail call void @_ZN32pxrInternal_v0_24__pxrReserved__13UsdSchemaBaseC2ERKNS_7UsdPrimE(ptr noundef nonnull align 8 dereferenceable(24) %0, ptr noundef nonnull align 8 dereferenceable(32) %1)
  %6 = getelementptr inbounds nuw i8, ptr %0, i64 24
  store ptr null, ptr %6, align 8
  store ptr getelementptr inbounds inrange(-16, 48) (i8, ptr @_ZTVN32pxrInternal_v0_24__pxrReserved__17UsdSkelBindingAPIE, i64 16), ptr %0, align 8
  br label %_ZN32pxrInternal_v0_24__pxrReserved__7UsdPrimD2Ev.exit

7:                                                ; preds = %2
  store i32 1, ptr %3, align 8
  %8 = getelementptr inbounds nuw i8, ptr %3, i64 8
  call void @llvm.memset.p0.i64(ptr noundef nonnull align 8 dereferenceable(24) %8, i8 0, i64 24, i1 false)
  invoke void @_ZN32pxrInternal_v0_24__pxrReserved__13UsdSchemaBaseC2ERKNS_7UsdPrimE(ptr noundef nonnull align 8 dereferenceable(24) %0, ptr noundef nonnull align 8 dereferenceable(32) %3)
          to label %9 unwind label %43

9:                                                ; preds = %7
  %10 = getelementptr inbounds nuw i8, ptr %0, i64 24
  store ptr null, ptr %10, align 8
  store ptr getelementptr inbounds inrange(-16, 48) (i8, ptr @_ZTVN32pxrInternal_v0_24__pxrReserved__17UsdSkelBindingAPIE, i64 16), ptr %0, align 8
  %11 = getelementptr inbounds nuw i8, ptr %3, i64 24
  %12 = load ptr, ptr %11, align 8
  %13 = ptrtoint ptr %12 to i64
  %14 = and i64 %13, 7
  %.not.i.i.i.i = icmp eq i64 %14, 0
  br i1 %.not.i.i.i.i, label %_ZN32pxrInternal_v0_24__pxrReserved__7TfTokenD2Ev.exit.i.i, label %15

15:                                               ; preds = %9
  %16 = and i64 %13, -8
  %17 = inttoptr i64 %16 to ptr
  %18 = atomicrmw sub ptr %17, i32 2 release, align 4
  br label %_ZN32pxrInternal_v0_24__pxrReserved__7TfTokenD2Ev.exit.i.i

_ZN32pxrInternal_v0_24__pxrReserved__7TfTokenD2Ev.exit.i.i: ; preds = %15, %9
  %19 = getelementptr inbounds nuw i8, ptr %3, i64 16
  %20 = load i32, ptr %19, align 8
  %.not.i.i1.i.i = icmp eq i32 %20, 0
  br i1 %.not.i.i1.i.i, label %_ZN32pxrInternal_v0_24__pxrReserved__7SdfPathD2Ev.exit.i.i, label %21

21:                                               ; preds = %_ZN32pxrInternal_v0_24__pxrReserved__7TfTokenD2Ev.exit.i.i
  %22 = and i32 %20, 255
  %23 = lshr i32 %20, 8
  %24 = zext nneg i32 %22 to i64
  %25 = getelementptr inbounds [257 x ptr], ptr @_ZN32pxrInternal_v0_24__pxrReserved__8Sdf_PoolINS_15Sdf_PathPrimTagELj24ELj8ELj16384EE13_regionStartsE, i64 0, i64 %24
  %26 = load ptr, ptr %25, align 8
  %27 = mul nuw nsw i32 %23, 24
  %28 = zext nneg i32 %27 to i64
  %29 = getelementptr inbounds i8, ptr %26, i64 %28
  %30 = getelementptr inbounds nuw i8, ptr %29, i64 8
  %31 = atomicrmw sub ptr %30, i32 1 seq_cst, align 4
  %32 = and i32 %31, 2147483647
  %33 = icmp eq i32 %32, 1
  br i1 %33, label %34, label %_ZN32pxrInternal_v0_24__pxrReserved__7SdfPathD2Ev.exit.i.i

34:                                               ; preds = %21
  invoke void @_ZNK32pxrInternal_v0_24__pxrReserved__12Sdf_PathNode8_DestroyEv(ptr noundef nonnull align 8 dereferenceable(16) %29)
          to label %_ZN32pxrInternal_v0_24__pxrReserved__7SdfPathD2Ev.exit.i.i unwind label %35

35:                                               ; preds = %34
  %36 = landingpad { ptr, i32 }
          catch ptr null
  %37 = extractvalue { ptr, i32 } %36, 0
  call void @__clang_call_terminate(ptr %37) #18
  unreachable

_ZN32pxrInternal_v0_24__pxrReserved__7SdfPathD2Ev.exit.i.i: ; preds = %34, %21, %_ZN32pxrInternal_v0_24__pxrReserved__7TfTokenD2Ev.exit.i.i
  %38 = load ptr, ptr %8, align 8
  %.not.i.i.i.i.i = icmp eq ptr %38, null
  br i1 %.not.i.i.i.i.i, label %_ZN32pxrInternal_v0_24__pxrReserved__7UsdPrimD2Ev.exit, label %39

39:                                               ; preds = %_ZN32pxrInternal_v0_24__pxrReserved__7SdfPathD2Ev.exit.i.i
  %40 = getelementptr inbounds nuw i8, ptr %38, i64 48
  %41 = atomicrmw sub ptr %40, i64 1 release, align 8
  %.not1.i.i.i.i.i = icmp eq i64 %41, 1
  br i1 %.not1.i.i.i.i.i, label %42, label %_ZN32pxrInternal_v0_24__pxrReserved__7UsdPrimD2Ev.exit

42:                                               ; preds = %39
  call void @_ZN32pxrInternal_v0_24__pxrReserved__12Usd_PrimDataD1Ev(ptr noundef nonnull align 8 dereferenceable(64) %38) #16
  call void @_ZdlPvm(ptr noundef nonnull %38, i64 noundef 64) #17
  br label %_ZN32pxrInternal_v0_24__pxrReserved__7UsdPrimD2Ev.exit

43:                                               ; preds = %7
  %44 = landingpad { ptr, i32 }
          cleanup
  call void @_ZN32pxrInternal_v0_24__pxrReserved__7UsdPrimD2Ev(ptr noundef nonnull align 8 dereferenceable(32) %3) #16
  resume { ptr, i32 } %44

_ZN32pxrInternal_v0_24__pxrReserved__7UsdPrimD2Ev.exit: ; preds = %42, %39, %_ZN32pxrInternal_v0_24__pxrReserved__7SdfPathD2Ev.exit.i.i, %5
  ret void
}